target datalayout = "e-m:e-p270:32:32-p271:32:32-p272:64:64-i64:64-i128:128-f80:128-n8:16:32:64-S128"
target triple = "x86_64-pc-linux-gnu"

%struct._phar_entry_info = type { i32, i32, i32, i32, i32, i32, %struct._phar_metadata_tracker, ptr, i32, i64, i64, i64, ptr, ptr, i32, ptr, ptr, ptr, i8, i32, i16, i16 }
%struct._phar_metadata_tracker = type { %struct._zval_struct, ptr }
%struct._zval_struct = type { %union._zend_value, %union.anon, %union.anon.2 }
%union._zend_value = type { i64 }
%union.anon = type { i32 }
%union.anon.2 = type { i32 }
%union.anon.7 = type { %struct._phar_zip_unix3 }
%struct._phar_zip_unix3 = type { [2 x i8], [2 x i8], [4 x i8], [2 x i8], [4 x i8], [2 x i8], [2 x i8] }
%struct._phar_zip_extra_field_header = type { [2 x i8], [2 x i8] }
%struct._phar_zip_unix_time = type { %struct._phar_zip_extra_field_header, i8, [4 x i8] }

; Function Attrs: nounwind uwtable
define internal i32 @phar_zip_process_extra(ptr noundef %0, ptr noundef %1, i16 noundef zeroext %2) #0 {
  %4 = alloca i32, align 4
  %5 = alloca ptr, align 8
  %6 = alloca ptr, align 8
  %7 = alloca i16, align 2
  %8 = alloca %union.anon.7, align 1
  %9 = alloca i64, align 8
  %10 = alloca i32, align 4
  %11 = alloca i64, align 8
  %12 = alloca i16, align 2
  store ptr %0, ptr %5, align 8, !tbaa !4
  store ptr %1, ptr %6, align 8, !tbaa !87
  store i16 %2, ptr %7, align 2, !tbaa !41
  call void @llvm.lifetime.start.p0(i64 18, ptr %8) #14
  call void @llvm.lifetime.start.p0(i64 8, ptr %9) #14
  br label %13

13:                                               ; preds = %275, %3
  %14 = load ptr, ptr %5, align 8, !tbaa !4
  %15 = call i64 @_php_stream_read(ptr noundef %14, ptr noundef %8, i64 noundef 4)
  %16 = icmp ne i64 4, %15
  br i1 %16, label %17, label %18

17:                                               ; preds = %13
  store i32 -1, ptr %4, align 4
  store i32 1, ptr %10, align 4
  br label %279

18:                                               ; preds = %13
  %19 = getelementptr inbounds nuw %struct._phar_zip_extra_field_header, ptr %8, i32 0, i32 0
  %20 = getelementptr inbounds [2 x i8], ptr %19, i64 0, i64 0
  %21 = load i8, ptr %20, align 1, !tbaa !19
  %22 = sext i8 %21 to i32
  %23 = icmp eq i32 %22, 85
  br i1 %23, label %24, label %115

24:                                               ; preds = %18
  %25 = getelementptr inbounds nuw %struct._phar_zip_extra_field_header, ptr %8, i32 0, i32 0
  %26 = getelementptr inbounds [2 x i8], ptr %25, i64 0, i64 1
  %27 = load i8, ptr %26, align 1, !tbaa !19
  %28 = sext i8 %27 to i32
  %29 = icmp eq i32 %28, 84
  br i1 %29, label %30, label %115

30:                                               ; preds = %24
  call void @llvm.lifetime.start.p0(i64 8, ptr %11) #14
  store i64 5, ptr %11, align 8, !tbaa !11
  call void @llvm.lifetime.start.p0(i64 2, ptr %12) #14
  %31 = getelementptr inbounds nuw %struct._phar_zip_extra_field_header, ptr %8, i32 0, i32 1
  %32 = getelementptr inbounds [2 x i8], ptr %31, i64 0, i64 0
  %33 = load i8, ptr %32, align 1, !tbaa !19
  %34 = sext i8 %33 to i16
  %35 = zext i16 %34 to i32
  %36 = and i32 %35, 255
  %37 = getelementptr inbounds nuw %struct._phar_zip_extra_field_header, ptr %8, i32 0, i32 1
  %38 = getelementptr inbounds [2 x i8], ptr %37, i64 0, i64 1
  %39 = load i8, ptr %38, align 1, !tbaa !19
  %40 = sext i8 %39 to i16
  %41 = zext i16 %40 to i32
  %42 = and i32 %41, 255
  %43 = shl i32 %42, 8
  %44 = or i32 %36, %43
  %45 = trunc i32 %44 to i16
  store i16 %45, ptr %12, align 2, !tbaa !41
  %46 = load i16, ptr %12, align 2, !tbaa !41
  %47 = zext i16 %46 to i64
  %48 = icmp uge i64 %47, 5
  br i1 %48, label %49, label %111

49:                                               ; preds = %30
  %50 = load ptr, ptr %5, align 8, !tbaa !4
  %51 = getelementptr inbounds nuw %struct._phar_zip_unix_time, ptr %8, i32 0, i32 1
  %52 = call i64 @_php_stream_read(ptr noundef %50, ptr noundef %51, i64 noundef 5)
  store i64 %52, ptr %9, align 8, !tbaa !11
  %53 = load i64, ptr %9, align 8, !tbaa !11
  %54 = icmp ne i64 %53, 5
  br i1 %54, label %55, label %56

55:                                               ; preds = %49
  store i32 -1, ptr %4, align 4
  store i32 1, ptr %10, align 4
  br label %112

56:                                               ; preds = %49
  %57 = getelementptr inbounds nuw %struct._phar_zip_unix_time, ptr %8, i32 0, i32 1
  %58 = load i8, ptr %57, align 1, !tbaa !19
  %59 = sext i8 %58 to i32
  %60 = and i32 %59, 1
  %61 = icmp ne i32 %60, 0
  br i1 %61, label %62, label %91

62:                                               ; preds = %56
  %63 = getelementptr inbounds nuw %struct._phar_zip_unix_time, ptr %8, i32 0, i32 2
  %64 = getelementptr inbounds [4 x i8], ptr %63, i64 0, i64 0
  %65 = load i8, ptr %64, align 1, !tbaa !19
  %66 = sext i8 %65 to i32
  %67 = and i32 %66, 255
  %68 = getelementptr inbounds nuw %struct._phar_zip_unix_time, ptr %8, i32 0, i32 2
  %69 = getelementptr inbounds [4 x i8], ptr %68, i64 0, i64 1
  %70 = load i8, ptr %69, align 1, !tbaa !19
  %71 = sext i8 %70 to i32
  %72 = and i32 %71, 255
  %73 = shl i32 %72, 8
  %74 = or i32 %67, %73
  %75 = getelementptr inbounds nuw %struct._phar_zip_unix_time, ptr %8, i32 0, i32 2
  %76 = getelementptr inbounds [4 x i8], ptr %75, i64 0, i64 2
  %77 = load i8, ptr %76, align 1, !tbaa !19
  %78 = sext i8 %77 to i32
  %79 = and i32 %78, 255
  %80 = shl i32 %79, 16
  %81 = or i32 %74, %80
  %82 = getelementptr inbounds nuw %struct._phar_zip_unix_time, ptr %8, i32 0, i32 2
  %83 = getelementptr inbounds [4 x i8], ptr %82, i64 0, i64 3
  %84 = load i8, ptr %83, align 1, !tbaa !19
  %85 = sext i8 %84 to i32
  %86 = and i32 %85, 255
  %87 = shl i32 %86, 24
  %88 = or i32 %81, %87
  %89 = load ptr, ptr %6, align 8, !tbaa !87
  %90 = getelementptr inbounds nuw %struct._phar_entry_info, ptr %89, i32 0, i32 1
  store i32 %88, ptr %90, align 4, !tbaa !49
  br label %91

91:                                               ; preds = %62, %56
  %92 = load i16, ptr %12, align 2, !tbaa !41
  %93 = zext i16 %92 to i32
  %94 = add nsw i32 %93, 4
  %95 = load i16, ptr %7, align 2, !tbaa !41
  %96 = zext i16 %95 to i32
  %97 = sub nsw i32 %96, %94
  %98 = trunc i32 %97 to i16
  store i16 %98, ptr %7, align 2, !tbaa !41
  %99 = load i16, ptr %12, align 2, !tbaa !41
  %100 = zext i16 %99 to i64
  %101 = load i64, ptr %9, align 8, !tbaa !11
  %102 = icmp ne i64 %100, %101
  br i1 %102, label %103, label %110

103:                                              ; preds = %91
  %104 = load ptr, ptr %5, align 8, !tbaa !4
  %105 = load i16, ptr %12, align 2, !tbaa !41
  %106 = zext i16 %105 to i64
  %107 = load i64, ptr %9, align 8, !tbaa !11
  %108 = sub i64 %106, %107
  %109 = call i32 @_php_stream_seek(ptr noundef %104, i64 noundef %108, i32 noundef 1)
  br label %110

110:                                              ; preds = %103, %91
  store i32 3, ptr %10, align 4
  br label %112

111:                                              ; preds = %30
  store i32 0, ptr %10, align 4
  br label %112

112:                                              ; preds = %111, %110, %55
  call void @llvm.lifetime.end.p0(i64 2, ptr %12) #14
  call void @llvm.lifetime.end.p0(i64 8, ptr %11) #14
  %113 = load i32, ptr %10, align 4
  switch i32 %113, label %279 [
    i32 0, label %114
    i32 3, label %275
  ]

114:                                              ; preds = %112
  br label %115

115:                                              ; preds = %114, %24, %18
  %116 = getelementptr inbounds nuw %struct._phar_zip_extra_field_header, ptr %8, i32 0, i32 0
  %117 = getelementptr inbounds [2 x i8], ptr %116, i64 0, i64 0
  %118 = load i8, ptr %117, align 1, !tbaa !19
  %119 = sext i8 %118 to i32
  %120 = icmp ne i32 %119, 110
  br i1 %120, label %127, label %121

121:                                              ; preds = %115
  %122 = getelementptr inbounds nuw %struct._phar_zip_extra_field_header, ptr %8, i32 0, i32 0
  %123 = getelementptr inbounds [2 x i8], ptr %122, i64 0, i64 1
  %124 = load i8, ptr %123, align 1, !tbaa !19
  %125 = sext i8 %124 to i32
  %126 = icmp ne i32 %125, 117
  br i1 %126, label %127, label %167

127:                                              ; preds = %121, %115
  %128 = load ptr, ptr %5, align 8, !tbaa !4
  %129 = getelementptr inbounds nuw %struct._phar_zip_extra_field_header, ptr %8, i32 0, i32 1
  %130 = getelementptr inbounds [2 x i8], ptr %129, i64 0, i64 0
  %131 = load i8, ptr %130, align 1, !tbaa !19
  %132 = sext i8 %131 to i16
  %133 = zext i16 %132 to i32
  %134 = and i32 %133, 255
  %135 = getelementptr inbounds nuw %struct._phar_zip_extra_field_header, ptr %8, i32 0, i32 1
  %136 = getelementptr inbounds [2 x i8], ptr %135, i64 0, i64 1
  %137 = load i8, ptr %136, align 1, !tbaa !19
  %138 = sext i8 %137 to i16
  %139 = zext i16 %138 to i32
  %140 = and i32 %139, 255
  %141 = shl i32 %140, 8
  %142 = or i32 %134, %141
  %143 = trunc i32 %142 to i16
  %144 = zext i16 %143 to i64
  %145 = call i32 @_php_stream_seek(ptr noundef %128, i64 noundef %144, i32 noundef 1)
  %146 = getelementptr inbounds nuw %struct._phar_zip_extra_field_header, ptr %8, i32 0, i32 1
  %147 = getelementptr inbounds [2 x i8], ptr %146, i64 0, i64 0
  %148 = load i8, ptr %147, align 1, !tbaa !19
  %149 = sext i8 %148 to i16
  %150 = zext i16 %149 to i32
  %151 = and i32 %150, 255
  %152 = getelementptr inbounds nuw %struct._phar_zip_extra_field_header, ptr %8, i32 0, i32 1
  %153 = getelementptr inbounds [2 x i8], ptr %152, i64 0, i64 1
  %154 = load i8, ptr %153, align 1, !tbaa !19
  %155 = sext i8 %154 to i16
  %156 = zext i16 %155 to i32
  %157 = and i32 %156, 255
  %158 = shl i32 %157, 8
  %159 = or i32 %151, %158
  %160 = trunc i32 %159 to i16
  %161 = zext i16 %160 to i32
  %162 = add nsw i32 %161, 4
  %163 = load i16, ptr %7, align 2, !tbaa !41
  %164 = zext i16 %163 to i32
  %165 = sub nsw i32 %164, %162
  %166 = trunc i32 %165 to i16
  store i16 %166, ptr %7, align 2, !tbaa !41
  br label %275

167:                                              ; preds = %121
  %168 = load ptr, ptr %5, align 8, !tbaa !4
  %169 = getelementptr inbounds nuw %struct._phar_zip_unix3, ptr %8, i32 0, i32 2
  %170 = call i64 @_php_stream_read(ptr noundef %168, ptr noundef %169, i64 noundef 14)
  store i64 %170, ptr %9, align 8, !tbaa !11
  %171 = load i64, ptr %9, align 8, !tbaa !11
  %172 = add i64 %171, 4
  %173 = load i16, ptr %7, align 2, !tbaa !41
  %174 = zext i16 %173 to i64
  %175 = sub i64 %174, %172
  %176 = trunc i64 %175 to i16
  store i16 %176, ptr %7, align 2, !tbaa !41
  %177 = load i64, ptr %9, align 8, !tbaa !11
  %178 = icmp ne i64 14, %177
  br i1 %178, label %179, label %180

179:                                              ; preds = %167
  store i32 -1, ptr %4, align 4
  store i32 1, ptr %10, align 4
  br label %279

180:                                              ; preds = %167
  %181 = getelementptr inbounds nuw %struct._phar_zip_unix3, ptr %8, i32 0, i32 1
  %182 = getelementptr inbounds [2 x i8], ptr %181, i64 0, i64 0
  %183 = load i8, ptr %182, align 1, !tbaa !19
  %184 = sext i8 %183 to i16
  %185 = zext i16 %184 to i32
  %186 = and i32 %185, 255
  %187 = getelementptr inbounds nuw %struct._phar_zip_unix3, ptr %8, i32 0, i32 1
  %188 = getelementptr inbounds [2 x i8], ptr %187, i64 0, i64 1
  %189 = load i8, ptr %188, align 1, !tbaa !19
  %190 = sext i8 %189 to i16
  %191 = zext i16 %190 to i32
  %192 = and i32 %191, 255
  %193 = shl i32 %192, 8
  %194 = or i32 %186, %193
  %195 = trunc i32 %194 to i16
  %196 = zext i16 %195 to i64
  %197 = icmp ugt i64 %196, 14
  br i1 %197, label %198, label %218

198:                                              ; preds = %180
  %199 = load ptr, ptr %5, align 8, !tbaa !4
  %200 = getelementptr inbounds nuw %struct._phar_zip_unix3, ptr %8, i32 0, i32 1
  %201 = getelementptr inbounds [2 x i8], ptr %200, i64 0, i64 0
  %202 = load i8, ptr %201, align 1, !tbaa !19
  %203 = sext i8 %202 to i16
  %204 = zext i16 %203 to i32
  %205 = and i32 %204, 255
  %206 = getelementptr inbounds nuw %struct._phar_zip_unix3, ptr %8, i32 0, i32 1
  %207 = getelementptr inbounds [2 x i8], ptr %206, i64 0, i64 1
  %208 = load i8, ptr %207, align 1, !tbaa !19
  %209 = sext i8 %208 to i16
  %210 = zext i16 %209 to i32
  %211 = and i32 %210, 255
  %212 = shl i32 %211, 8
  %213 = or i32 %205, %212
  %214 = trunc i32 %213 to i16
  %215 = zext i16 %214 to i64
  %216 = sub i64 %215, 2
  %217 = call i32 @_php_stream_seek(ptr noundef %199, i64 noundef %216, i32 noundef 1)
  br label %218

218:                                              ; preds = %198, %180
  %219 = load ptr, ptr %6, align 8, !tbaa !87
  %220 = getelementptr inbounds nuw %struct._phar_entry_info, ptr %219, i32 0, i32 4
  %221 = load i32, ptr %220, align 8, !tbaa !50
  %222 = and i32 %221, 61440
  store i32 %222, ptr %220, align 8, !tbaa !50
  %223 = load ptr, ptr %6, align 8, !tbaa !87
  %224 = getelementptr inbounds nuw %struct._phar_entry_info, ptr %223, i32 0, i32 21
  %225 = load i16, ptr %224, align 2
  %226 = lshr i16 %225, 3
  %227 = and i16 %226, 1
  %228 = zext i16 %227 to i32
  %229 = icmp ne i32 %228, 0
  br i1 %229, label %230, label %252

230:                                              ; preds = %218
  %231 = getelementptr inbounds nuw %struct._phar_zip_unix3, ptr %8, i32 0, i32 3
  %232 = getelementptr inbounds [2 x i8], ptr %231, i64 0, i64 0
  %233 = load i8, ptr %232, align 1, !tbaa !19
  %234 = sext i8 %233 to i16
  %235 = zext i16 %234 to i32
  %236 = and i32 %235, 255
  %237 = getelementptr inbounds nuw %struct._phar_zip_unix3, ptr %8, i32 0, i32 3
  %238 = getelementptr inbounds [2 x i8], ptr %237, i64 0, i64 1
  %239 = load i8, ptr %238, align 1, !tbaa !19
  %240 = sext i8 %239 to i16
  %241 = zext i16 %240 to i32
  %242 = and i32 %241, 255
  %243 = shl i32 %242, 8
  %244 = or i32 %236, %243
  %245 = trunc i32 %244 to i16
  %246 = zext i16 %245 to i32
  %247 = and i32 %246, 511
  %248 = load ptr, ptr %6, align 8, !tbaa !87
  %249 = getelementptr inbounds nuw %struct._phar_entry_info, ptr %248, i32 0, i32 4
  %250 = load i32, ptr %249, align 8, !tbaa !50
  %251 = or i32 %250, %247
  store i32 %251, ptr %249, align 8, !tbaa !50
  br label %274

252:                                              ; preds = %218
  %253 = getelementptr inbounds nuw %struct._phar_zip_unix3, ptr %8, i32 0, i32 3
  %254 = getelementptr inbounds [2 x i8], ptr %253, i64 0, i64 0
  %255 = load i8, ptr %254, align 1, !tbaa !19
  %256 = sext i8 %255 to i16
  %257 = zext i16 %256 to i32
  %258 = and i32 %257, 255
  %259 = getelementptr inbounds nuw %struct._phar_zip_unix3, ptr %8, i32 0, i32 3
  %260 = getelementptr inbounds [2 x i8], ptr %259, i64 0, i64 1
  %261 = load i8, ptr %260, align 1, !tbaa !19
  %262 = sext i8 %261 to i16
  %263 = zext i16 %262 to i32
  %264 = and i32 %263, 255
  %265 = shl i32 %264, 8
  %266 = or i32 %258, %265
  %267 = trunc i32 %266 to i16
  %268 = zext i16 %267 to i32
  %269 = and i32 %268, 511
  %270 = load ptr, ptr %6, align 8, !tbaa !87
  %271 = getelementptr inbounds nuw %struct._phar_entry_info, ptr %270, i32 0, i32 4
  %272 = load i32, ptr %271, align 8, !tbaa !50
  %273 = or i32 %272, %269
  store i32 %273, ptr %271, align 8, !tbaa !50
  br label %274

274:                                              ; preds = %252, %230
  br label %275

275:                                              ; preds = %274, %127, %112
  %276 = load i16, ptr %7, align 2, !tbaa !41
  %277 = icmp ne i16 %276, 0
  br i1 %277, label %13, label %278

278:                                              ; preds = %275
  store i32 0, ptr %4, align 4
  store i32 1, ptr %10, align 4
  br label %279

279:                                              ; preds = %278, %179, %112, %17
  call void @llvm.lifetime.end.p0(i64 8, ptr %9) #14
  call void @llvm.lifetime.end.p0(i64 18, ptr %8) #14
  %280 = load i32, ptr %4, align 4
  ret i32 %280
}