; Function Attrs: nounwind uwtable
define internal fastcc range(i32 -1, 1) i32 @phar_zip_process_extra(ptr noundef %0, ptr noundef nonnull captures(none) %1, i16 noundef zeroext %2) unnamed_addr #0 {
  %4 = alloca %union.anon.7, align 1
  call void @llvm.lifetime.start.p0(i64 18, ptr nonnull %4) #16
  %5 = getelementptr inbounds nuw i8, ptr %4, i64 4
  %6 = getelementptr inbounds nuw i8, ptr %4, i64 1
  %7 = getelementptr inbounds nuw i8, ptr %4, i64 2
  %8 = getelementptr inbounds nuw i8, ptr %4, i64 3
  %9 = getelementptr inbounds nuw i8, ptr %1, i64 16
  %10 = getelementptr inbounds nuw i8, ptr %4, i64 8
  %11 = getelementptr inbounds nuw i8, ptr %4, i64 9
  %12 = getelementptr inbounds nuw i8, ptr %4, i64 5
  %13 = getelementptr inbounds nuw i8, ptr %1, i64 4
  br label %14

14:                                               ; preds = %.thread, %3
  %.034 = phi i16 [ %2, %3 ], [ %.337, %.thread ]
  %15 = call i64 @_php_stream_read(ptr noundef %0, ptr noundef nonnull %4, i64 noundef 4) #16
  %.not = icmp eq i64 %15, 4
  br i1 %.not, label %16, label %.thread51

16:                                               ; preds = %14
  %17 = load i8, ptr %4, align 1, !tbaa !5
  %18 = icmp eq i8 %17, 85
  %19 = load i8, ptr %6, align 1
  %20 = icmp eq i8 %19, 84
  %or.cond = select i1 %18, i1 %20, i1 false
  br i1 %or.cond, label %21, label %41

21:                                               ; preds = %16
  %22 = load i8, ptr %7, align 1, !tbaa !5
  %23 = zext i8 %22 to i16
  %24 = load i8, ptr %8, align 1, !tbaa !5
  %25 = zext i8 %24 to i16
  %26 = shl nuw i16 %25, 8
  %27 = or disjoint i16 %26, %23
  %28 = zext i16 %27 to i64
  %29 = icmp ugt i16 %27, 4
  br i1 %29, label %30, label %.thread54

30:                                               ; preds = %21
  %31 = call i64 @_php_stream_read(ptr noundef %0, ptr noundef nonnull %5, i64 noundef 5) #16
  %.not42 = icmp eq i64 %31, 5
  br i1 %.not42, label %32, label %.thread51

32:                                               ; preds = %30
  %33 = load i8, ptr %5, align 1, !tbaa !5
  %34 = and i8 %33, 1
  %.not43 = icmp eq i8 %34, 0
  br i1 %.not43, label %37, label %35

35:                                               ; preds = %32
  %36 = load i32, ptr %12, align 1
  store i32 %36, ptr %13, align 4, !tbaa !49
  br label %37

37:                                               ; preds = %35, %32
  %.not44 = icmp eq i16 %27, 5
  br i1 %.not44, label %.thread, label %38

38:                                               ; preds = %37
  %39 = add nsw i64 %28, -5
  %40 = call i32 @_php_stream_seek(ptr noundef %0, i64 noundef %39, i32 noundef 1) #16
  br label %.thread

41:                                               ; preds = %16
  %42 = icmp ne i8 %17, 110
  %43 = icmp ne i8 %19, 117
  %or.cond9 = select i1 %42, i1 true, i1 %43
  br i1 %or.cond9, label %.thread54, label %48

.thread54:                                        ; preds = %21, %41
  %44 = load i16, ptr %7, align 1
  %45 = zext i16 %44 to i64
  %46 = call i32 @_php_stream_seek(ptr noundef %0, i64 noundef %45, i32 noundef 1) #16
  %47 = load i16, ptr %7, align 1
  br label %.thread

48:                                               ; preds = %41
  %49 = call i64 @_php_stream_read(ptr noundef %0, ptr noundef nonnull %5, i64 noundef 14) #16
  %.not45 = icmp eq i64 %49, 14
  br i1 %.not45, label %50, label %.thread51

50:                                               ; preds = %48
  %51 = load i8, ptr %7, align 1, !tbaa !5
  %52 = zext i8 %51 to i64
  %53 = load i8, ptr %8, align 1, !tbaa !5
  %54 = zext i8 %53 to i64
  %55 = shl nuw nsw i64 %54, 8
  %56 = or disjoint i64 %55, %52
  %57 = icmp samesign ugt i64 %56, 14
  br i1 %57, label %58, label %61

58:                                               ; preds = %50
  %59 = add nsw i64 %56, -2
  %60 = call i32 @_php_stream_seek(ptr noundef %0, i64 noundef %59, i32 noundef 1) #16
  br label %61

61:                                               ; preds = %58, %50
  %62 = load i32, ptr %9, align 8, !tbaa !50
  %63 = and i32 %62, 61440
  %64 = load i8, ptr %10, align 1, !tbaa !5
  %65 = zext i8 %64 to i32
  %66 = load i8, ptr %11, align 1, !tbaa !5
  %67 = zext i8 %66 to i32
  %68 = shl nuw nsw i32 %67, 8
  %.masked = and i32 %68, 256
  %69 = or disjoint i32 %.masked, %65
  %70 = or disjoint i32 %69, %63
  store i32 %70, ptr %9, align 8, !tbaa !50
  br label %.thread

.thread:                                          ; preds = %61, %37, %38, %.thread54
  %.pn.in = phi i16 [ %47, %.thread54 ], [ %27, %38 ], [ 5, %37 ], [ 14, %61 ]
  %.pn.neg = add i16 %.034, -4
  %.337 = sub i16 %.pn.neg, %.pn.in
  %.not48 = icmp eq i16 %.337, 0
  br i1 %.not48, label %.thread51, label %14

.thread51:                                        ; preds = %30, %.thread, %48, %14
  %.1 = phi i32 [ -1, %14 ], [ -1, %48 ], [ 0, %.thread ], [ -1, %30 ]
  call void @llvm.lifetime.end.p0(i64 18, ptr nonnull %4) #16
  ret i32 %.1
}